target datalayout = "e-m:e-p270:32:32-p271:32:32-p272:64:64-i64:64-i128:128-f80:128-n8:16:32:64-S128"
target triple = "x86_64-unknown-linux-gnu"

%class.b3Vector3 = type { %union.anon }
%union.anon = type { [4 x float] }

; Function Attrs: mustprogress nounwind uwtable
define linkonce_odr dso_local noundef float @_ZNK9b3Vector33dotERKS_(ptr noundef nonnull align 16 dereferenceable(16) %this, ptr noundef nonnull align 16 dereferenceable(16) %v) #1 comdat align 2 {
entry:
  %this.addr = alloca ptr, align 8
  %v.addr = alloca ptr, align 8
  store ptr %this, ptr %this.addr, align 8
  store ptr %v, ptr %v.addr, align 8
  %this1 = load ptr, ptr %this.addr, align 8
  %0 = getelementptr inbounds %class.b3Vector3, ptr %this1, i32 0, i32 0
  %arrayidx = getelementptr inbounds [4 x float], ptr %0, i64 0, i64 0
  %1 = load float, ptr %arrayidx, align 16
  %2 = load ptr, ptr %v.addr, align 8
  %3 = getelementptr inbounds %class.b3Vector3, ptr %2, i32 0, i32 0
  %arrayidx2 = getelementptr inbounds [4 x float], ptr %3, i64 0, i64 0
  %4 = load float, ptr %arrayidx2, align 16
  %5 = getelementptr inbounds %class.b3Vector3, ptr %this1, i32 0, i32 0
  %arrayidx3 = getelementptr inbounds [4 x float], ptr %5, i64 0, i64 1
  %6 = load float, ptr %arrayidx3, align 4
  %7 = load ptr, ptr %v.addr, align 8
  %8 = getelementptr inbounds %class.b3Vector3, ptr %7, i32 0, i32 0
  %arrayidx4 = getelementptr inbounds [4 x float], ptr %8, i64 0, i64 1
  %9 = load float, ptr %arrayidx4, align 4
  %mul5 = fmul float %6, %9
  %10 = call float @llvm.fmuladd.f32(float %1, float %4, float %mul5)
  %11 = getelementptr inbounds %class.b3Vector3, ptr %this1, i32 0, i32 0
  %arrayidx6 = getelementptr inbounds [4 x float], ptr %11, i64 0, i64 2
  %12 = load float, ptr %arrayidx6, align 8
  %13 = load ptr, ptr %v.addr, align 8
  %14 = getelementptr inbounds %class.b3Vector3, ptr %13, i32 0, i32 0
  %arrayidx7 = getelementptr inbounds [4 x float], ptr %14, i64 0, i64 2
  %15 = load float, ptr %arrayidx7, align 8
  %16 = call float @llvm.fmuladd.f32(float %12, float %15, float %10)
  ret float %16
}

; Function Attrs: mustprogress uwtable
define linkonce_odr dso_local noundef float @_Z5b3DotRK9b3Vector3S1_(ptr noundef nonnull align 16 dereferenceable(16) %v1, ptr noundef nonnull align 16 dereferenceable(16) %v2) #0 comdat {
entry:
  %v1.addr = alloca ptr, align 8
  %v2.addr = alloca ptr, align 8
  store ptr %v1, ptr %v1.addr, align 8
  store ptr %v2, ptr %v2.addr, align 8
  %0 = load ptr, ptr %v1.addr, align 8
  %1 = load ptr, ptr %v2.addr, align 8
  %call = call noundef float @_ZNK9b3Vector33dotERKS_(ptr noundef nonnull align 16 dereferenceable(16) %0, ptr noundef nonnull align 16 dereferenceable(16) %1)
  ret float %call
}

; Function Attrs: mustprogress uwtable
define dso_local noundef float @_Z10calcRelVelRK9b3Vector3S1_S1_S1_S1_S1_S1_S1_(ptr noundef nonnull align 16 dereferenceable(16) %l0, ptr noundef nonnull align 16 dereferenceable(16) %l1, ptr noundef nonnull align 16 dereferenceable(16) %a0, ptr noundef nonnull align 16 dereferenceable(16) %a1, ptr noundef nonnull align 16 dereferenceable(16) %linVel0, ptr noundef nonnull align 16 dereferenceable(16) %angVel0, ptr noundef nonnull align 16 dereferenceable(16) %linVel1, ptr noundef nonnull align 16 dereferenceable(16) %angVel1) #0 {
entry:
  %l0.addr = alloca ptr, align 8
  %l1.addr = alloca ptr, align 8
  %a0.addr = alloca ptr, align 8
  %a1.addr = alloca ptr, align 8
  %linVel0.addr = alloca ptr, align 8
  %angVel0.addr = alloca ptr, align 8
  %linVel1.addr = alloca ptr, align 8
  %angVel1.addr = alloca ptr, align 8
  store ptr %l0, ptr %l0.addr, align 8
  store ptr %l1, ptr %l1.addr, align 8
  store ptr %a0, ptr %a0.addr, align 8
  store ptr %a1, ptr %a1.addr, align 8
  store ptr %linVel0, ptr %linVel0.addr, align 8
  store ptr %angVel0, ptr %angVel0.addr, align 8
  store ptr %linVel1, ptr %linVel1.addr, align 8
  store ptr %angVel1, ptr %angVel1.addr, align 8
  %0 = load ptr, ptr %l0.addr, align 8
  %1 = load ptr, ptr %linVel0.addr, align 8
  %call = call noundef float @_Z5b3DotRK9b3Vector3S1_(ptr noundef nonnull align 16 dereferenceable(16) %0, ptr noundef nonnull align 16 dereferenceable(16) %1)
  %2 = load ptr, ptr %a0.addr, align 8
  %3 = load ptr, ptr %angVel0.addr, align 8
  %call1 = call noundef float @_Z5b3DotRK9b3Vector3S1_(ptr noundef nonnull align 16 dereferenceable(16) %2, ptr noundef nonnull align 16 dereferenceable(16) %3)
  %add = fadd float %call, %call1
  %4 = load ptr, ptr %l1.addr, align 8
  %5 = load ptr, ptr %linVel1.addr, align 8
  %call2 = call noundef float @_Z5b3DotRK9b3Vector3S1_(ptr noundef nonnull align 16 dereferenceable(16) %4, ptr noundef nonnull align 16 dereferenceable(16) %5)
  %add3 = fadd float %add, %call2
  %6 = load ptr, ptr %a1.addr, align 8
  %7 = load ptr, ptr %angVel1.addr, align 8
  %call4 = call noundef float @_Z5b3DotRK9b3Vector3S1_(ptr noundef nonnull align 16 dereferenceable(16) %6, ptr noundef nonnull align 16 dereferenceable(16) %7)
  %add5 = fadd float %add3, %call4
  ret float %add5
}