; Function Attrs: mustprogress nofree norecurse nosync nounwind willreturn memory(argmem: read) uwtable
define dso_local noundef float @_Z10calcRelVelRK9b3Vector3S1_S1_S1_S1_S1_S1_S1_(ptr nocapture noundef nonnull readonly align 16 dereferenceable(16) %l0, ptr nocapture noundef nonnull readonly align 16 dereferenceable(16) %l1, ptr nocapture noundef nonnull readonly align 16 dereferenceable(16) %a0, ptr nocapture noundef nonnull readonly align 16 dereferenceable(16) %a1, ptr nocapture noundef nonnull readonly align 16 dereferenceable(16) %linVel0, ptr nocapture noundef nonnull readonly align 16 dereferenceable(16) %angVel0, ptr nocapture noundef nonnull readonly align 16 dereferenceable(16) %linVel1, ptr nocapture noundef nonnull readonly align 16 dereferenceable(16) %angVel1) local_unnamed_addr #4 {
entry:
  %0 = load <4 x float>, ptr %l0, align 16
  %1 = shufflevector <4 x float> %0, <4 x float> poison, <2 x i32> <i32 0, i32 poison>
  %2 = load <4 x float>, ptr %linVel0, align 16
  %3 = shufflevector <4 x float> %2, <4 x float> poison, <2 x i32> <i32 0, i32 poison>
  %4 = shufflevector <4 x float> %0, <4 x float> poison, <2 x i32> <i32 1, i32 poison>
  %5 = shufflevector <4 x float> %2, <4 x float> poison, <2 x i32> <i32 1, i32 poison>
  %6 = shufflevector <4 x float> %0, <4 x float> poison, <2 x i32> <i32 2, i32 poison>
  %7 = shufflevector <4 x float> %2, <4 x float> poison, <2 x i32> <i32 2, i32 poison>
  %8 = load float, ptr %a0, align 16
  %9 = load float, ptr %angVel0, align 16
  %arrayidx3.i.i1 = getelementptr inbounds i8, ptr %a0, i64 4
  %10 = load float, ptr %arrayidx3.i.i1, align 4
  %arrayidx4.i.i2 = getelementptr inbounds i8, ptr %angVel0, i64 4
  %11 = load float, ptr %arrayidx4.i.i2, align 4
  %arrayidx6.i.i4 = getelementptr inbounds i8, ptr %a0, i64 8
  %12 = load float, ptr %arrayidx6.i.i4, align 8
  %arrayidx7.i.i5 = getelementptr inbounds i8, ptr %angVel0, i64 8
  %13 = load float, ptr %arrayidx7.i.i5, align 8
  %14 = insertelement <2 x float> %4, float %10, i64 1
  %15 = insertelement <2 x float> %5, float %11, i64 1
  %16 = fmul <2 x float> %14, %15
  %17 = insertelement <2 x float> %1, float %8, i64 1
  %18 = insertelement <2 x float> %3, float %9, i64 1
  %19 = tail call <2 x float> @llvm.fmuladd.v2f32(<2 x float> %17, <2 x float> %18, <2 x float> %16)
  %20 = insertelement <2 x float> %6, float %12, i64 1
  %21 = insertelement <2 x float> %7, float %13, i64 1
  %22 = tail call <2 x float> @llvm.fmuladd.v2f32(<2 x float> %20, <2 x float> %21, <2 x float> %19)
  %shift = shufflevector <2 x float> %22, <2 x float> poison, <2 x i32> <i32 1, i32 poison>
  %23 = fadd <2 x float> %22, %shift
  %add = extractelement <2 x float> %23, i64 0
  %24 = load float, ptr %l1, align 16
  %25 = load float, ptr %linVel1, align 16
  %arrayidx3.i.i6 = getelementptr inbounds i8, ptr %l1, i64 4
  %26 = load float, ptr %arrayidx3.i.i6, align 4
  %arrayidx4.i.i7 = getelementptr inbounds i8, ptr %linVel1, i64 4
  %27 = load float, ptr %arrayidx4.i.i7, align 4
  %mul5.i.i8 = fmul float %26, %27
  %28 = tail call float @llvm.fmuladd.f32(float %24, float %25, float %mul5.i.i8)
  %arrayidx6.i.i9 = getelementptr inbounds i8, ptr %l1, i64 8
  %29 = load float, ptr %arrayidx6.i.i9, align 8
  %arrayidx7.i.i10 = getelementptr inbounds i8, ptr %linVel1, i64 8
  %30 = load float, ptr %arrayidx7.i.i10, align 8
  %31 = tail call noundef float @llvm.fmuladd.f32(float %29, float %30, float %28)
  %add3 = fadd float %add, %31
  %32 = load float, ptr %a1, align 16
  %33 = load float, ptr %angVel1, align 16
  %arrayidx3.i.i11 = getelementptr inbounds i8, ptr %a1, i64 4
  %34 = load float, ptr %arrayidx3.i.i11, align 4
  %arrayidx4.i.i12 = getelementptr inbounds i8, ptr %angVel1, i64 4
  %35 = load float, ptr %arrayidx4.i.i12, align 4
  %mul5.i.i13 = fmul float %34, %35
  %36 = tail call float @llvm.fmuladd.f32(float %32, float %33, float %mul5.i.i13)
  %arrayidx6.i.i14 = getelementptr inbounds i8, ptr %a1, i64 8
  %37 = load float, ptr %arrayidx6.i.i14, align 8
  %arrayidx7.i.i15 = getelementptr inbounds i8, ptr %angVel1, i64 8
  %38 = load float, ptr %arrayidx7.i.i15, align 8
  %39 = tail call noundef float @llvm.fmuladd.f32(float %37, float %38, float %36)
  %add5 = fadd float %add3, %39
  ret float %add5
}